; ModuleID = 'source-C-CXX/53/1819.c'
source_filename = "source-C-CXX/53/1819.c"
target datalayout = "e-m:e-p270:32:32-p271:32:32-p272:64:64-i64:64-f80:128-n8:16:32:64-S128"
target triple = "x86_64-pc-linux-gnu"

@.str = private unnamed_addr constant [6 x i8] c"%d %d\00", align 1
@.str.1 = private unnamed_addr constant [3 x i8] c"%d\00", align 1

; Function Attrs: nofree nounwind sspstrong uwtable
define dso_local i32 @main() local_unnamed_addr #0 {
  %1 = alloca i32, align 4
  %2 = alloca i32, align 4
  %3 = bitcast i32* %1 to i8*
  call void @llvm.lifetime.start.p0i8(i64 4, i8* nonnull %3) #4
  %4 = bitcast i32* %2 to i8*
  call void @llvm.lifetime.start.p0i8(i64 4, i8* nonnull %4) #4
  %5 = call i32 (i8*, ...) @__isoc99_scanf(i8* getelementptr inbounds ([6 x i8], [6 x i8]* @.str, i64 0, i64 0), i32* nonnull %1, i32* nonnull %2)
  %6 = load i32, i32* %1, align 4, !tbaa !5
  %7 = load i32, i32* %2, align 4
  %8 = add nsw i32 %6, -1
  %9 = icmp sgt i32 %6, 0
  call void @llvm.assume(i1 %9)
  br label %10

10:                                               ; preds = %0, %29
  %11 = phi i32 [ %30, %29 ], [ 1, %0 ]
  br label %14

12:                                               ; preds = %22
  %13 = icmp eq i32 %28, %6
  br i1 %13, label %29, label %14, !llvm.loop !9

14:                                               ; preds = %10, %12
  %15 = phi i32 [ %11, %10 ], [ %24, %12 ]
  %16 = phi i32 [ 0, %10 ], [ %28, %12 ]
  %17 = sub nsw i32 %15, %7
  %18 = srem i32 %17, %6
  %19 = icmp ne i32 %18, 0
  %20 = icmp slt i32 %15, 1
  %21 = select i1 %19, i1 true, i1 %20
  br i1 %21, label %29, label %22

22:                                               ; preds = %14
  %23 = mul nsw i32 %17, %8
  %24 = sdiv i32 %23, %6
  %25 = icmp eq i32 %16, %8
  %26 = icmp sgt i32 %24, 0
  %27 = select i1 %25, i1 %26, i1 false
  %28 = add nuw nsw i32 %16, 1
  br i1 %27, label %31, label %12

29:                                               ; preds = %14, %12
  %30 = add nuw nsw i32 %11, 1
  br label %10, !llvm.loop !11

31:                                               ; preds = %22
  %32 = call i32 (i8*, ...) @printf(i8* nonnull dereferenceable(1) getelementptr inbounds ([3 x i8], [3 x i8]* @.str.1, i64 0, i64 0), i32 %11)
  call void @llvm.lifetime.end.p0i8(i64 4, i8* nonnull %4) #4
  call void @llvm.lifetime.end.p0i8(i64 4, i8* nonnull %3) #4
  ret i32 0
}

; Function Attrs: argmemonly mustprogress nofree nosync nounwind willreturn
declare void @llvm.lifetime.start.p0i8(i64 immarg, i8* nocapture) #1

; Function Attrs: nofree nounwind
declare noundef i32 @__isoc99_scanf(i8* nocapture noundef readonly, ...) local_unnamed_addr #2

; Function Attrs: nofree nounwind
declare noundef i32 @printf(i8* nocapture noundef readonly, ...) local_unnamed_addr #2

; Function Attrs: argmemonly mustprogress nofree nosync nounwind willreturn
declare void @llvm.lifetime.end.p0i8(i64 immarg, i8* nocapture) #1

; Function Attrs: inaccessiblememonly nofree nosync nounwind willreturn
declare void @llvm.assume(i1 noundef) #3


!llvm.module.flags = !{!0, !1, !2, !3}
!llvm.ident = !{!4}

!0 = !{i32 1, !"wchar_size", i32 4}
!1 = !{i32 7, !"PIC Level", i32 2}
!2 = !{i32 7, !"PIE Level", i32 2}
!3 = !{i32 7, !"uwtable", i32 1}
!4 = !{!"clang version 13.0.0"}
!5 = !{!6, !6, i64 0}
!6 = !{!"int", !7, i64 0}
!7 = !{!"omnipotent char", !8, i64 0}
!8 = !{!"Simple C/C++ TBAA"}
!9 = distinct !{!9, !10}
!10 = !{!"llvm.loop.mustprogress"}
!11 = distinct !{!11, !10}
